
firmware.elf:     file format elf32-avr


Disassembly of section .text:

00000000 <__vectors>:
0000: 00 00       	rjmp	.+1876   	; 0x0000 <__reset_handler>
0000: 00 00       	rjmp	.+64     	; 0x0000 <__vector_2>
0000: 00 00       	rjmp	.+134    	; 0x0000 <__vector_3>
0000: 00 00       	rjmp	.+204    	; 0x0000 <__vector_4>
0000: 00 00       	rjmp	.+274    	; 0x0000 <__vector_5>
0000: 00 00       	rjmp	.+344    	; 0x0000 <__vector_6>
0000: 00 00       	rjmp	.+414    	; 0x0000 <__vector_7>
0000: 00 00       	rjmp	.+484    	; 0x0000 <__vector_8>
0000: 00 00       	rjmp	.+554    	; 0x0000 <__vector_9>
0000: 00 00       	rjmp	.+624    	; 0x0000 <__vector_10>
0000: 00 00       	rjmp	.+694    	; 0x0000 <__vector_11>
0000: 00 00       	rjmp	.+764    	; 0x0000 <__vector_12>
0000: 00 00       	rjmp	.+834    	; 0x0000 <__vector_13>
0000: 00 00       	rjmp	.+904    	; 0x0000 <__vector_14>
0000: 00 00       	rjmp	.+974    	; 0x0000 <__vector_15>
0000: 00 00       	rjmp	.+1044   	; 0x0000 <__vector_16>
0000: 00 00       	rjmp	.+1114   	; 0x0000 <__vector_17>
0000: 00 00       	rjmp	.+1184   	; 0x0000 <__vector_18>
0000: 00 00       	rjmp	.+1254   	; 0x0000 <__vector_19>
0000: 00 00       	rjmp	.+1324   	; 0x0000 <__vector_20>
0000: 00 00       	rjmp	.+1394   	; 0x0000 <__vector_21>
0000: 00 00       	rjmp	.+1464   	; 0x0000 <__vector_22>
0000: 00 00       	rjmp	.+1534   	; 0x0000 <__vector_23>
0000: 00 00       	rjmp	.+1604   	; 0x0000 <__vector_24>
0000: 00 00       	rjmp	.+1674   	; 0x0000 <__vector_25>
0000: 00 00       	rjmp	.+1744   	; 0x0000 <__vector_26>

00000034 <__do_clear_bss>:
0000: 00 00       	ldi	r18, 0x0000	; 0
0000: 00 00       	ldi	r26, 0x0000	; 96
0000: 00 00       	ldi	r27, 0x0000	; 0
0000: 00 00       	rjmp	.+2      	; 0x0000 <.do_clear_bss_start>

0000003c <.do_clear_bss_loop>:
0000: 00 00       	st	X+, r1

0000003e <.do_clear_bss_start>:
0000: 00 00       	cpi	r26, 0x0000D	; 125
0000: 00 00       	cpc	r27, r18
0000: 00 00       	brne	.-8      	; 0x0000 <.do_clear_bss_loop>

00000044 <__vector_2>:
0000: 00 00       	push	r0
0000: 00 00       	push	r1
0000: 00 00       	in	r0, 0x0000	; 63
0000: 00 00       	push	r0
0000: 00 00       	eor	r1, r1
0000: 00 00       	push	r18
0000: 00 00       	push	r19
0000: 00 00       	push	r20
0000: 00 00       	push	r21
0000: 00 00       	push	r22
0000: 00 00       	push	r23
0000: 00 00       	push	r24
0000: 00 00       	push	r25
0000: 00 00       	push	r26
0000: 00 00       	push	r27
0000: 00 00       	push	r30
0000: 00 00       	push	r31
0000: 00 00 00 00 	call	0x0000	; 0x0000 <__stop_program>
0000: 00 00       	pop	r31
0000: 00 00       	pop	r30
0000: 00 00       	pop	r27
0000: 00 00       	pop	r26
0000: 00 00       	pop	r25
0000: 00 00       	pop	r24
0000: 00 00       	pop	r23
0000: 00 00       	pop	r22
0000: 00 00       	pop	r21
0000: 00 00       	pop	r20
0000: 00 00       	pop	r19
0000: 00 00       	pop	r18
0000: 00 00       	pop	r0
0000: 00 00       	out	0x0000, r0	; 63
0000: 00 00       	pop	r1
0000: 00 00       	pop	r0
0000: 00 00       	reti

0000008c <__vector_3>:
0000: 00 00       	push	r0
0000: 00 00       	push	r1
0000: 00 00       	in	r0, 0x0000	; 63
0000: 00 00       	push	r0
0000: 00 00       	eor	r1, r1
0000: 00 00       	push	r18
0000: 00 00       	push	r19
0000: 00 00       	push	r20
0000: 00 00       	push	r21
0000: 00 00       	push	r22
0000: 00 00       	push	r23
0000: 00 00       	push	r24
0000: 00 00       	push	r25
0000: 00 00       	push	r26
0000: 00 00       	push	r27
0000: 00 00       	push	r30
0000: 00 00       	push	r31
0000: 00 00 00 00 	call	0x0000	; 0x0000 <__stop_program>
0000: 00 00       	pop	r31
0000: 00 00       	pop	r30
0000: 00 00       	pop	r27
0000: 00 00       	pop	r26
0000: 00 00       	pop	r25
0000: 00 00       	pop	r24
0000: 00 00       	pop	r23
0000: 00 00       	pop	r22
0000: 00 00       	pop	r21
0000: 00 00       	pop	r20
0000: 00 00       	pop	r19
0000: 00 00       	pop	r18
0000: 00 00       	pop	r0
0000: 00 00       	out	0x0000, r0	; 63
0000: 00 00       	pop	r1
0000: 00 00       	pop	r0
0000: 00 00       	reti

000000d4 <__vector_4>:
0000: 00 00       	push	r0
0000: 00 00       	push	r1
0000: 00 00       	in	r0, 0x0000	; 63
0000: 00 00       	push	r0
0000: 00 00       	eor	r1, r1
0000: 00 00       	push	r18
0000: 00 00       	push	r19
0000: 00 00       	push	r20
0000: 00 00       	push	r21
0000: 00 00       	push	r22
0000: 00 00       	push	r23
0000: 00 00       	push	r24
0000: 00 00       	push	r25
0000: 00 00       	push	r26
0000: 00 00       	push	r27
0000: 00 00       	push	r30
0000: 00 00       	push	r31
0000: 00 00 00 00 	call	0x0000	; 0x0000 <__stop_program>
0000: 00 00       	pop	r31
0000: 00 00       	pop	r30
0000: 00 00       	pop	r27
0000: 00 00       	pop	r26
0000: 00 00       	pop	r25
0000: 00 00       	pop	r24
0000: 00 00       	pop	r23
0000: 00 00       	pop	r22
0000: 00 00       	pop	r21
0000: 00 00       	pop	r20
0000: 00 00       	pop	r19
0000: 00 00       	pop	r18
0000: 00 00       	pop	r0
0000: 00 00       	out	0x0000, r0	; 63
0000: 00 00       	pop	r1
0000: 00 00       	pop	r0
0000: 00 00       	reti

0000011c <__vector_5>:
0000: 00 00       	push	r0
0000: 00 00       	push	r1
0000: 00 00       	in	r0, 0x0000	; 63
0000: 00 00       	push	r0
0000: 00 00       	eor	r1, r1
0000: 00 00       	push	r18
0000: 00 00       	push	r19
0000: 00 00       	push	r20
0000: 00 00       	push	r21
0000: 00 00       	push	r22
0000: 00 00       	push	r23
0000: 00 00       	push	r24
0000: 00 00       	push	r25
0000: 00 00       	push	r26
0000: 00 00       	push	r27
0000: 00 00       	push	r30
0000: 00 00       	push	r31
0000: 00 00 00 00 	call	0x0000	; 0x0000 <__stop_program>
0000: 00 00       	pop	r31
0000: 00 00       	pop	r30
0000: 00 00       	pop	r27
0000: 00 00       	pop	r26
0000: 00 00       	pop	r25
0000: 00 00       	pop	r24
0000: 00 00       	pop	r23
0000: 00 00       	pop	r22
0000: 00 00       	pop	r21
0000: 00 00       	pop	r20
0000: 00 00       	pop	r19
0000: 00 00       	pop	r18
0000: 00 00       	pop	r0
0000: 00 00       	out	0x0000, r0	; 63
0000: 00 00       	pop	r1
0000: 00 00       	pop	r0
0000: 00 00       	reti

00000164 <__vector_6>:
0000: 00 00       	push	r0
0000: 00 00       	push	r1
0000: 00 00       	in	r0, 0x0000	; 63
0000: 00 00       	push	r0
0000: 00 00       	eor	r1, r1
0000: 00 00       	push	r18
0000: 00 00       	push	r19
0000: 00 00       	push	r20
0000: 00 00       	push	r21
0000: 00 00       	push	r22
0000: 00 00       	push	r23
0000: 00 00       	push	r24
0000: 00 00       	push	r25
0000: 00 00       	push	r26
0000: 00 00       	push	r27
0000: 00 00       	push	r30
0000: 00 00       	push	r31
0000: 00 00 00 00 	call	0x0000	; 0x0000 <__stop_program>
0000: 00 00       	pop	r31
0000: 00 00       	pop	r30
0000: 00 00       	pop	r27
0000: 00 00       	pop	r26
0000: 00 00       	pop	r25
0000: 00 00       	pop	r24
0000: 00 00       	pop	r23
0000: 00 00       	pop	r22
0000: 00 00       	pop	r21
0000: 00 00       	pop	r20
0000: 00 00       	pop	r19
0000: 00 00       	pop	r18
0000: 00 00       	pop	r0
0000: 00 00       	out	0x0000, r0	; 63
0000: 00 00       	pop	r1
0000: 00 00       	pop	r0
0000: 00 00       	reti

000001ac <__vector_7>:
0000: 00 00       	push	r0
0000: 00 00       	push	r1
0000: 00 00       	in	r0, 0x0000	; 63
0000: 00 00       	push	r0
0000: 00 00       	eor	r1, r1
0000: 00 00       	push	r18
0000: 00 00       	push	r19
0000: 00 00       	push	r20
0000: 00 00       	push	r21
0000: 00 00       	push	r22
0000: 00 00       	push	r23
0000: 00 00       	push	r24
0000: 00 00       	push	r25
0000: 00 00       	push	r26
0000: 00 00       	push	r27
0000: 00 00       	push	r30
0000: 00 00       	push	r31
0000: 00 00 00 00 	call	0x0000	; 0x0000 <__stop_program>
0000: 00 00       	pop	r31
0000: 00 00       	pop	r30
0000: 00 00       	pop	r27
0000: 00 00       	pop	r26
0000: 00 00       	pop	r25
0000: 00 00       	pop	r24
0000: 00 00       	pop	r23
0000: 00 00       	pop	r22
0000: 00 00       	pop	r21
0000: 00 00       	pop	r20
0000: 00 00       	pop	r19
0000: 00 00       	pop	r18
0000: 00 00       	pop	r0
0000: 00 00       	out	0x0000, r0	; 63
0000: 00 00       	pop	r1
0000: 00 00       	pop	r0
0000: 00 00       	reti

000001f4 <__vector_8>:
0000: 00 00       	push	r0
0000: 00 00       	push	r1
0000: 00 00       	in	r0, 0x0000	; 63
0000: 00 00       	push	r0
0000: 00 00       	eor	r1, r1
0000: 00 00       	push	r18
0000: 00 00       	push	r19
0000: 00 00       	push	r20
0000: 00 00       	push	r21
0000: 00 00       	push	r22
0000: 00 00       	push	r23
0000: 00 00       	push	r24
0000: 00 00       	push	r25
0000: 00 00       	push	r26
0000: 00 00       	push	r27
0000: 00 00       	push	r30
0000: 00 00       	push	r31
0000: 00 00 00 00 	call	0x0000	; 0x0000 <__stop_program>
0000: 00 00       	pop	r31
0000: 00 00       	pop	r30
0000: 00 00       	pop	r27
0000: 00 00       	pop	r26
0000: 00 00       	pop	r25
0000: 00 00       	pop	r24
0000: 00 00       	pop	r23
0000: 00 00       	pop	r22
0000: 00 00       	pop	r21
0000: 00 00       	pop	r20
0000: 00 00       	pop	r19
0000: 00 00       	pop	r18
0000: 00 00       	pop	r0
0000: 00 00       	out	0x0000, r0	; 63
0000: 00 00       	pop	r1
0000: 00 00       	pop	r0
0000: 00 00       	reti

0000023c <__vector_9>:
0000: 00 00       	push	r0
0000: 00 00       	push	r1
0000: 00 00       	in	r0, 0x0000	; 63
0000: 00 00       	push	r0
0000: 00 00       	eor	r1, r1
0000: 00 00       	push	r18
0000: 00 00       	push	r19
0000: 00 00       	push	r20
0000: 00 00       	push	r21
0000: 00 00       	push	r22
0000: 00 00       	push	r23
0000: 00 00       	push	r24
0000: 00 00       	push	r25
0000: 00 00       	push	r26
0000: 00 00       	push	r27
0000: 00 00       	push	r30
0000: 00 00       	push	r31
0000: 00 00 00 00 	call	0x0000	; 0x0000 <__stop_program>
0000: 00 00       	pop	r31
0000: 00 00       	pop	r30
0000: 00 00       	pop	r27
0000: 00 00       	pop	r26
0000: 00 00       	pop	r25
0000: 00 00       	pop	r24
0000: 00 00       	pop	r23
0000: 00 00       	pop	r22
0000: 00 00       	pop	r21
0000: 00 00       	pop	r20
0000: 00 00       	pop	r19
0000: 00 00       	pop	r18
0000: 00 00       	pop	r0
0000: 00 00       	out	0x0000, r0	; 63
0000: 00 00       	pop	r1
0000: 00 00       	pop	r0
0000: 00 00       	reti

00000284 <__vector_10>:
0000: 00 00       	push	r0
0000: 00 00       	push	r1
0000: 00 00       	in	r0, 0x0000	; 63
0000: 00 00       	push	r0
0000: 00 00       	eor	r1, r1
0000: 00 00       	push	r18
0000: 00 00       	push	r19
0000: 00 00       	push	r20
0000: 00 00       	push	r21
0000: 00 00       	push	r22
0000: 00 00       	push	r23
0000: 00 00       	push	r24
0000: 00 00       	push	r25
0000: 00 00       	push	r26
0000: 00 00       	push	r27
0000: 00 00       	push	r30
0000: 00 00       	push	r31
0000: 00 00 00 00 	call	0x0000	; 0x0000 <interrupt_timer2_ovf>
0000: 00 00       	pop	r31
0000: 00 00       	pop	r30
0000: 00 00       	pop	r27
0000: 00 00       	pop	r26
0000: 00 00       	pop	r25
0000: 00 00       	pop	r24
0000: 00 00       	pop	r23
0000: 00 00       	pop	r22
0000: 00 00       	pop	r21
0000: 00 00       	pop	r20
0000: 00 00       	pop	r19
0000: 00 00       	pop	r18
0000: 00 00       	pop	r0
0000: 00 00       	out	0x0000, r0	; 63
0000: 00 00       	pop	r1
0000: 00 00       	pop	r0
0000: 00 00       	reti

000002cc <__vector_11>:
0000: 00 00       	push	r0
0000: 00 00       	push	r1
0000: 00 00       	in	r0, 0x0000	; 63
0000: 00 00       	push	r0
0000: 00 00       	eor	r1, r1
0000: 00 00       	push	r18
0000: 00 00       	push	r19
0000: 00 00       	push	r20
0000: 00 00       	push	r21
0000: 00 00       	push	r22
0000: 00 00       	push	r23
0000: 00 00       	push	r24
0000: 00 00       	push	r25
0000: 00 00       	push	r26
0000: 00 00       	push	r27
0000: 00 00       	push	r30
0000: 00 00       	push	r31
0000: 00 00 00 00 	call	0x0000	; 0x0000 <__stop_program>
0000: 00 00       	pop	r31
0000: 00 00       	pop	r30
0000: 00 00       	pop	r27
0000: 00 00       	pop	r26
0000: 00 00       	pop	r25
0000: 00 00       	pop	r24
0000: 00 00       	pop	r23
0000: 00 00       	pop	r22
0000: 00 00       	pop	r21
0000: 00 00       	pop	r20
0000: 00 00       	pop	r19
0000: 00 00       	pop	r18
0000: 00 00       	pop	r0
0000: 00 00       	out	0x0000, r0	; 63
0000: 00 00       	pop	r1
0000: 00 00       	pop	r0
0000: 00 00       	reti

00000314 <__vector_12>:
0000: 00 00       	push	r0
0000: 00 00       	push	r1
0000: 00 00       	in	r0, 0x0000	; 63
0000: 00 00       	push	r0
0000: 00 00       	eor	r1, r1
0000: 00 00       	push	r18
0000: 00 00       	push	r19
0000: 00 00       	push	r20
0000: 00 00       	push	r21
0000: 00 00       	push	r22
0000: 00 00       	push	r23
0000: 00 00       	push	r24
0000: 00 00       	push	r25
0000: 00 00       	push	r26
0000: 00 00       	push	r27
0000: 00 00       	push	r30
0000: 00 00       	push	r31
0000: 00 00 00 00 	call	0x0000	; 0x0000 <__stop_program>
0000: 00 00       	pop	r31
0000: 00 00       	pop	r30
0000: 00 00       	pop	r27
0000: 00 00       	pop	r26
0000: 00 00       	pop	r25
0000: 00 00       	pop	r24
0000: 00 00       	pop	r23
0000: 00 00       	pop	r22
0000: 00 00       	pop	r21
0000: 00 00       	pop	r20
0000: 00 00       	pop	r19
0000: 00 00       	pop	r18
0000: 00 00       	pop	r0
0000: 00 00       	out	0x0000, r0	; 63
0000: 00 00       	pop	r1
0000: 00 00       	pop	r0
0000: 00 00       	reti

0000035c <__vector_13>:
0000: 00 00       	push	r0
0000: 00 00       	push	r1
0000: 00 00       	in	r0, 0x0000	; 63
0000: 00 00       	push	r0
0000: 00 00       	eor	r1, r1
0000: 00 00       	push	r18
0000: 00 00       	push	r19
0000: 00 00       	push	r20
0000: 00 00       	push	r21
0000: 00 00       	push	r22
0000: 00 00       	push	r23
0000: 00 00       	push	r24
0000: 00 00       	push	r25
0000: 00 00       	push	r26
0000: 00 00       	push	r27
0000: 00 00       	push	r30
0000: 00 00       	push	r31
0000: 00 00 00 00 	call	0x0000	; 0x0000 <__stop_program>
0000: 00 00       	pop	r31
0000: 00 00       	pop	r30
0000: 00 00       	pop	r27
0000: 00 00       	pop	r26
0000: 00 00       	pop	r25
0000: 00 00       	pop	r24
0000: 00 00       	pop	r23
0000: 00 00       	pop	r22
0000: 00 00       	pop	r21
0000: 00 00       	pop	r20
0000: 00 00       	pop	r19
0000: 00 00       	pop	r18
0000: 00 00       	pop	r0
0000: 00 00       	out	0x0000, r0	; 63
0000: 00 00       	pop	r1
0000: 00 00       	pop	r0
0000: 00 00       	reti

000003a4 <__vector_14>:
0000: 00 00       	push	r0
0000: 00 00       	push	r1
0000: 00 00       	in	r0, 0x0000	; 63
0000: 00 00       	push	r0
0000: 00 00       	eor	r1, r1
0000: 00 00       	push	r18
0000: 00 00       	push	r19
0000: 00 00       	push	r20
0000: 00 00       	push	r21
0000: 00 00       	push	r22
0000: 00 00       	push	r23
0000: 00 00       	push	r24
0000: 00 00       	push	r25
0000: 00 00       	push	r26
0000: 00 00       	push	r27
0000: 00 00       	push	r30
0000: 00 00       	push	r31
0000: 00 00 00 00 	call	0x0000	; 0x0000 <interrupt_timer1_ovf>
0000: 00 00       	pop	r31
0000: 00 00       	pop	r30
0000: 00 00       	pop	r27
0000: 00 00       	pop	r26
0000: 00 00       	pop	r25
0000: 00 00       	pop	r24
0000: 00 00       	pop	r23
0000: 00 00       	pop	r22
0000: 00 00       	pop	r21
0000: 00 00       	pop	r20
0000: 00 00       	pop	r19
0000: 00 00       	pop	r18
0000: 00 00       	pop	r0
0000: 00 00       	out	0x0000, r0	; 63
0000: 00 00       	pop	r1
0000: 00 00       	pop	r0
0000: 00 00       	reti

000003ec <__vector_15>:
0000: 00 00       	push	r0
0000: 00 00       	push	r1
0000: 00 00       	in	r0, 0x0000	; 63
0000: 00 00       	push	r0
0000: 00 00       	eor	r1, r1
0000: 00 00       	push	r18
0000: 00 00       	push	r19
0000: 00 00       	push	r20
0000: 00 00       	push	r21
0000: 00 00       	push	r22
0000: 00 00       	push	r23
0000: 00 00       	push	r24
0000: 00 00       	push	r25
0000: 00 00       	push	r26
0000: 00 00       	push	r27
0000: 00 00       	push	r30
0000: 00 00       	push	r31
0000: 00 00 00 00 	call	0x0000	; 0x0000 <__stop_program>
0000: 00 00       	pop	r31
0000: 00 00       	pop	r30
0000: 00 00       	pop	r27
0000: 00 00       	pop	r26
0000: 00 00       	pop	r25
0000: 00 00       	pop	r24
0000: 00 00       	pop	r23
0000: 00 00       	pop	r22
0000: 00 00       	pop	r21
0000: 00 00       	pop	r20
0000: 00 00       	pop	r19
0000: 00 00       	pop	r18
0000: 00 00       	pop	r0
0000: 00 00       	out	0x0000, r0	; 63
0000: 00 00       	pop	r1
0000: 00 00       	pop	r0
0000: 00 00       	reti

00000434 <__vector_16>:
0000: 00 00       	push	r0
0000: 00 00       	push	r1
0000: 00 00       	in	r0, 0x0000	; 63
0000: 00 00       	push	r0
0000: 00 00       	eor	r1, r1
0000: 00 00       	push	r18
0000: 00 00       	push	r19
0000: 00 00       	push	r20
0000: 00 00       	push	r21
0000: 00 00       	push	r22
0000: 00 00       	push	r23
0000: 00 00       	push	r24
0000: 00 00       	push	r25
0000: 00 00       	push	r26
0000: 00 00       	push	r27
0000: 00 00       	push	r30
0000: 00 00       	push	r31
0000: 00 00 00 00 	call	0x0000	; 0x0000 <__stop_program>
0000: 00 00       	pop	r31
0000: 00 00       	pop	r30
0000: 00 00       	pop	r27
0000: 00 00       	pop	r26
0000: 00 00       	pop	r25
0000: 00 00       	pop	r24
0000: 00 00       	pop	r23
0000: 00 00       	pop	r22
0000: 00 00       	pop	r21
0000: 00 00       	pop	r20
0000: 00 00       	pop	r19
0000: 00 00       	pop	r18
0000: 00 00       	pop	r0
0000: 00 00       	out	0x0000, r0	; 63
0000: 00 00       	pop	r1
0000: 00 00       	pop	r0
0000: 00 00       	reti

0000047c <__vector_17>:
0000: 00 00       	push	r0
0000: 00 00       	push	r1
0000: 00 00       	in	r0, 0x0000	; 63
0000: 00 00       	push	r0
0000: 00 00       	eor	r1, r1
0000: 00 00       	push	r18
0000: 00 00       	push	r19
0000: 00 00       	push	r20
0000: 00 00       	push	r21
0000: 00 00       	push	r22
0000: 00 00       	push	r23
0000: 00 00       	push	r24
0000: 00 00       	push	r25
0000: 00 00       	push	r26
0000: 00 00       	push	r27
0000: 00 00       	push	r30
0000: 00 00       	push	r31
0000: 00 00 00 00 	call	0x0000	; 0x0000 <interrupt_timer0_ovf>
0000: 00 00       	pop	r31
0000: 00 00       	pop	r30
0000: 00 00       	pop	r27
0000: 00 00       	pop	r26
0000: 00 00       	pop	r25
0000: 00 00       	pop	r24
0000: 00 00       	pop	r23
0000: 00 00       	pop	r22
0000: 00 00       	pop	r21
0000: 00 00       	pop	r20
0000: 00 00       	pop	r19
0000: 00 00       	pop	r18
0000: 00 00       	pop	r0
0000: 00 00       	out	0x0000, r0	; 63
0000: 00 00       	pop	r1
0000: 00 00       	pop	r0
0000: 00 00       	reti

000004c4 <__vector_18>:
0000: 00 00       	push	r0
0000: 00 00       	push	r1
0000: 00 00       	in	r0, 0x0000	; 63
0000: 00 00       	push	r0
0000: 00 00       	eor	r1, r1
0000: 00 00       	push	r18
0000: 00 00       	push	r19
0000: 00 00       	push	r20
0000: 00 00       	push	r21
0000: 00 00       	push	r22
0000: 00 00       	push	r23
0000: 00 00       	push	r24
0000: 00 00       	push	r25
0000: 00 00       	push	r26
0000: 00 00       	push	r27
0000: 00 00       	push	r30
0000: 00 00       	push	r31
0000: 00 00 00 00 	call	0x0000	; 0x0000 <__stop_program>
0000: 00 00       	pop	r31
0000: 00 00       	pop	r30
0000: 00 00       	pop	r27
0000: 00 00       	pop	r26
0000: 00 00       	pop	r25
0000: 00 00       	pop	r24
0000: 00 00       	pop	r23
0000: 00 00       	pop	r22
0000: 00 00       	pop	r21
0000: 00 00       	pop	r20
0000: 00 00       	pop	r19
0000: 00 00       	pop	r18
0000: 00 00       	pop	r0
0000: 00 00       	out	0x0000, r0	; 63
0000: 00 00       	pop	r1
0000: 00 00       	pop	r0
0000: 00 00       	reti

0000050c <__vector_19>:
0000: 00 00       	push	r0
0000: 00 00       	push	r1
0000: 00 00       	in	r0, 0x0000	; 63
0000: 00 00       	push	r0
0000: 00 00       	eor	r1, r1
0000: 00 00       	push	r18
0000: 00 00       	push	r19
0000: 00 00       	push	r20
0000: 00 00       	push	r21
0000: 00 00       	push	r22
0000: 00 00       	push	r23
0000: 00 00       	push	r24
0000: 00 00       	push	r25
0000: 00 00       	push	r26
0000: 00 00       	push	r27
0000: 00 00       	push	r30
0000: 00 00       	push	r31
0000: 00 00 00 00 	call	0x0000	; 0x0000 <__stop_program>
0000: 00 00       	pop	r31
0000: 00 00       	pop	r30
0000: 00 00       	pop	r27
0000: 00 00       	pop	r26
0000: 00 00       	pop	r25
0000: 00 00       	pop	r24
0000: 00 00       	pop	r23
0000: 00 00       	pop	r22
0000: 00 00       	pop	r21
0000: 00 00       	pop	r20
0000: 00 00       	pop	r19
0000: 00 00       	pop	r18
0000: 00 00       	pop	r0
0000: 00 00       	out	0x0000, r0	; 63
0000: 00 00       	pop	r1
0000: 00 00       	pop	r0
0000: 00 00       	reti

00000554 <__vector_20>:
0000: 00 00       	push	r0
0000: 00 00       	push	r1
0000: 00 00       	in	r0, 0x0000	; 63
0000: 00 00       	push	r0
0000: 00 00       	eor	r1, r1
0000: 00 00       	push	r18
0000: 00 00       	push	r19
0000: 00 00       	push	r20
0000: 00 00       	push	r21
0000: 00 00       	push	r22
0000: 00 00       	push	r23
0000: 00 00       	push	r24
0000: 00 00       	push	r25
0000: 00 00       	push	r26
0000: 00 00       	push	r27
0000: 00 00       	push	r30
0000: 00 00       	push	r31
0000: 00 00 00 00 	call	0x0000	; 0x0000 <interrupt_usart_udre>
0000: 00 00       	pop	r31
0000: 00 00       	pop	r30
0000: 00 00       	pop	r27
0000: 00 00       	pop	r26
0000: 00 00       	pop	r25
0000: 00 00       	pop	r24
0000: 00 00       	pop	r23
0000: 00 00       	pop	r22
0000: 00 00       	pop	r21
0000: 00 00       	pop	r20
0000: 00 00       	pop	r19
0000: 00 00       	pop	r18
0000: 00 00       	pop	r0
0000: 00 00       	out	0x0000, r0	; 63
0000: 00 00       	pop	r1
0000: 00 00       	pop	r0
0000: 00 00       	reti

0000059c <__vector_21>:
0000: 00 00       	push	r0
0000: 00 00       	push	r1
0000: 00 00       	in	r0, 0x0000	; 63
0000: 00 00       	push	r0
0000: 00 00       	eor	r1, r1
0000: 00 00       	push	r18
0000: 00 00       	push	r19
0000: 00 00       	push	r20
0000: 00 00       	push	r21
0000: 00 00       	push	r22
0000: 00 00       	push	r23
0000: 00 00       	push	r24
0000: 00 00       	push	r25
0000: 00 00       	push	r26
0000: 00 00       	push	r27
0000: 00 00       	push	r30
0000: 00 00       	push	r31
0000: 00 00 00 00 	call	0x0000	; 0x0000 <__stop_program>
0000: 00 00       	pop	r31
0000: 00 00       	pop	r30
0000: 00 00       	pop	r27
0000: 00 00       	pop	r26
0000: 00 00       	pop	r25
0000: 00 00       	pop	r24
0000: 00 00       	pop	r23
0000: 00 00       	pop	r22
0000: 00 00       	pop	r21
0000: 00 00       	pop	r20
0000: 00 00       	pop	r19
0000: 00 00       	pop	r18
0000: 00 00       	pop	r0
0000: 00 00       	out	0x0000, r0	; 63
0000: 00 00       	pop	r1
0000: 00 00       	pop	r0
0000: 00 00       	reti

000005e4 <__vector_22>:
0000: 00 00       	push	r0
0000: 00 00       	push	r1
0000: 00 00       	in	r0, 0x0000	; 63
0000: 00 00       	push	r0
0000: 00 00       	eor	r1, r1
0000: 00 00       	push	r18
0000: 00 00       	push	r19
0000: 00 00       	push	r20
0000: 00 00       	push	r21
0000: 00 00       	push	r22
0000: 00 00       	push	r23
0000: 00 00       	push	r24
0000: 00 00       	push	r25
0000: 00 00       	push	r26
0000: 00 00       	push	r27
0000: 00 00       	push	r30
0000: 00 00       	push	r31
0000: 00 00 00 00 	call	0x0000	; 0x0000 <__stop_program>
0000: 00 00       	pop	r31
0000: 00 00       	pop	r30
0000: 00 00       	pop	r27
0000: 00 00       	pop	r26
0000: 00 00       	pop	r25
0000: 00 00       	pop	r24
0000: 00 00       	pop	r23
0000: 00 00       	pop	r22
0000: 00 00       	pop	r21
0000: 00 00       	pop	r20
0000: 00 00       	pop	r19
0000: 00 00       	pop	r18
0000: 00 00       	pop	r0
0000: 00 00       	out	0x0000, r0	; 63
0000: 00 00       	pop	r1
0000: 00 00       	pop	r0
0000: 00 00       	reti

0000062c <__vector_23>:
0000: 00 00       	push	r0
0000: 00 00       	push	r1
0000: 00 00       	in	r0, 0x0000	; 63
0000: 00 00       	push	r0
0000: 00 00       	eor	r1, r1
0000: 00 00       	push	r18
0000: 00 00       	push	r19
0000: 00 00       	push	r20
0000: 00 00       	push	r21
0000: 00 00       	push	r22
0000: 00 00       	push	r23
0000: 00 00       	push	r24
0000: 00 00       	push	r25
0000: 00 00       	push	r26
0000: 00 00       	push	r27
0000: 00 00       	push	r30
0000: 00 00       	push	r31
0000: 00 00 00 00 	call	0x0000	; 0x0000 <__stop_program>
0000: 00 00       	pop	r31
0000: 00 00       	pop	r30
0000: 00 00       	pop	r27
0000: 00 00       	pop	r26
0000: 00 00       	pop	r25
0000: 00 00       	pop	r24
0000: 00 00       	pop	r23
0000: 00 00       	pop	r22
0000: 00 00       	pop	r21
0000: 00 00       	pop	r20
0000: 00 00       	pop	r19
0000: 00 00       	pop	r18
0000: 00 00       	pop	r0
0000: 00 00       	out	0x0000, r0	; 63
0000: 00 00       	pop	r1
0000: 00 00       	pop	r0
0000: 00 00       	reti

00000674 <__vector_24>:
0000: 00 00       	push	r0
0000: 00 00       	push	r1
0000: 00 00       	in	r0, 0x0000	; 63
0000: 00 00       	push	r0
0000: 00 00       	eor	r1, r1
0000: 00 00       	push	r18
0000: 00 00       	push	r19
0000: 00 00       	push	r20
0000: 00 00       	push	r21
0000: 00 00       	push	r22
0000: 00 00       	push	r23
0000: 00 00       	push	r24
0000: 00 00       	push	r25
0000: 00 00       	push	r26
0000: 00 00       	push	r27
0000: 00 00       	push	r30
0000: 00 00       	push	r31
0000: 00 00 00 00 	call	0x0000	; 0x0000 <__stop_program>
0000: 00 00       	pop	r31
0000: 00 00       	pop	r30
0000: 00 00       	pop	r27
0000: 00 00       	pop	r26
0000: 00 00       	pop	r25
0000: 00 00       	pop	r24
0000: 00 00       	pop	r23
0000: 00 00       	pop	r22
0000: 00 00       	pop	r21
0000: 00 00       	pop	r20
0000: 00 00       	pop	r19
0000: 00 00       	pop	r18
0000: 00 00       	pop	r0
0000: 00 00       	out	0x0000, r0	; 63
0000: 00 00       	pop	r1
0000: 00 00       	pop	r0
0000: 00 00       	reti

000006bc <__vector_25>:
0000: 00 00       	push	r0
0000: 00 00       	push	r1
0000: 00 00       	in	r0, 0x0000	; 63
0000: 00 00       	push	r0
0000: 00 00       	eor	r1, r1
0000: 00 00       	push	r18
0000: 00 00       	push	r19
0000: 00 00       	push	r20
0000: 00 00       	push	r21
0000: 00 00       	push	r22
0000: 00 00       	push	r23
0000: 00 00       	push	r24
0000: 00 00       	push	r25
0000: 00 00       	push	r26
0000: 00 00       	push	r27
0000: 00 00       	push	r30
0000: 00 00       	push	r31
0000: 00 00 00 00 	call	0x0000	; 0x0000 <interrupt_twi>
0000: 00 00       	pop	r31
0000: 00 00       	pop	r30
0000: 00 00       	pop	r27
0000: 00 00       	pop	r26
0000: 00 00       	pop	r25
0000: 00 00       	pop	r24
0000: 00 00       	pop	r23
0000: 00 00       	pop	r22
0000: 00 00       	pop	r21
0000: 00 00       	pop	r20
0000: 00 00       	pop	r19
0000: 00 00       	pop	r18
0000: 00 00       	pop	r0
0000: 00 00       	out	0x0000, r0	; 63
0000: 00 00       	pop	r1
0000: 00 00       	pop	r0
0000: 00 00       	reti

00000704 <__vector_26>:
0000: 00 00       	push	r0
0000: 00 00       	push	r1
0000: 00 00       	in	r0, 0x0000	; 63
0000: 00 00       	push	r0
0000: 00 00       	eor	r1, r1
0000: 00 00       	push	r18
0000: 00 00       	push	r19
0000: 00 00       	push	r20
0000: 00 00       	push	r21
0000: 00 00       	push	r22
0000: 00 00       	push	r23
0000: 00 00       	push	r24
0000: 00 00       	push	r25
0000: 00 00       	push	r26
0000: 00 00       	push	r27
0000: 00 00       	push	r30
0000: 00 00       	push	r31
0000: 00 00 00 00 	call	0x0000	; 0x0000 <__stop_program>
0000: 00 00       	pop	r31
0000: 00 00       	pop	r30
0000: 00 00       	pop	r27
0000: 00 00       	pop	r26
0000: 00 00       	pop	r25
0000: 00 00       	pop	r24
0000: 00 00       	pop	r23
0000: 00 00       	pop	r22
0000: 00 00       	pop	r21
0000: 00 00       	pop	r20
0000: 00 00       	pop	r19
0000: 00 00       	pop	r18
0000: 00 00       	pop	r0
0000: 00 00       	out	0x0000, r0	; 63
0000: 00 00       	pop	r1
0000: 00 00       	pop	r0
0000: 00 00       	reti

0000074c <__stop_program>:
0000: 00 00       	rjmp	.-2      	; 0x0000 <__stop_program>

0000074e <sei>:
0000: 00 00       	sei
0000: 00 00       	ret

00000752 <cli>:
0000: 00 00       	cli
0000: 00 00       	ret

00000756 <__reset_handler>:
0000: 00 00       	eor	r1, r1

00000758 <__copy_data>:
0000: 00 00       	ldi	r30, 0x0000E	; 78
0000: 00 00       	ldi	r31, 0x0000B	; 11
0000: 00 00       	ldi	r26, 0x0000	; 96
0000: 00 00       	ldi	r27, 0x0000	; 0
0000: 00 00       	rjmp	.+4      	; 0x0000 <__copy_data+0x0000>
0000: 00 00       	lpm	r0, Z+
0000: 00 00       	st	X+, r0
0000: 00 00       	cpi	r26, 0x0000	; 96
0000: 00 00       	brne	.-8      	; 0x0000 <__copy_data+0x0000>
0000: 00 00       	cpi	r27, 0x0000	; 0
0000: 00 00       	brne	.-12     	; 0x0000 <__copy_data+0x0000>

0000076e <__clear_bss>:
0000: 00 00       	ldi	r31, 0x0000	; 0
0000: 00 00       	ldi	r30, 0x0000	; 96
0000: 00 00       	rjmp	.+2      	; 0x0000 <__clear_bss+0x0000>
0000: 00 00       	st	Z+, r1
0000: 00 00       	cpi	r30, 0x0000D	; 125
0000: 00 00       	brne	.-6      	; 0x0000 <__clear_bss+0x0000>
0000: 00 00       	cpi	r31, 0x0000	; 0
0000: 00 00       	brne	.-10     	; 0x0000 <__clear_bss+0x0000>

0000077e <__call_main>:
0000: 00 00 00 00 	call	0x0000	; 0x0000 <main>
0000: 00 00       	rjmp	.-56     	; 0x0000 <__stop_program>

00000784 <main>:
0000: 00 00       	ldi	r24, 0x0000	; 32
0000: 00 00       	out	0x0000, r24	; 4
0000: 00 00       	ldi	r24, 0x0000	; 32
0000: 00 00       	out	0x0000, r24	; 5

0000078c <interrupt_twi>:
0000: 00 00       	push	r28
0000: 00 00       	push	r29
0000: 00 00       	in	r28, 0x0000	; 61
0000: 00 00       	in	r29, 0x0000	; 62
0000: 00 00       	ldi	r24, 0xB9	; 185
0000: 00 00       	ldi	r25, 0x0000	; 0
0000: 00 00       	movw	r30, r24
0000: 00 00       	ld	r24, Z
0000: 00 00       	mov	r24, r24
0000: 00 00       	ldi	r25, 0x0000	; 0
0000: 00 00       	andi	r24, 0xF8	; 248
0000: 00 00       	eor	r25, r25
0000: 00 00       	mov	r0, r25
0000: 00 00       	add	r0, r0
0000: 00 00       	sbc	r26, r26
0000: 00 00       	sbc	r27, r27
0000: 00 00       	sbiw	r24, 0x0000	; 8
0000: 00 00       	sbc	r26, r1
0000: 00 00       	sbc	r27, r1
0000: 00 00       	cpi	r24, 0x0000	; 81
0000: 00 00       	cpc	r25, r1
0000: 00 00       	cpc	r26, r1
0000: 00 00       	cpc	r27, r1
0000: 00 00       	brcs	.+2      	; 0x0000 <interrupt_twi+0x0000>
0000: 00 00       	rjmp	.+396    	; 0x0000 <interrupt_twi+0x0000>
0000: 00 00       	subi	r24, 0xAA	; 170
0000: 00 00       	sbci	r25, 0xFA	; 250
0000: 00 00       	movw	r30, r24
0000: 00 00 00 00 	jmp	0x0000	; 0x0000 <__tablejump2__>
0000: 00 00       	ldi	r24, 0xBB	; 187
0000: 00 00       	ldi	r25, 0x0000	; 0
0000: 00 00 00 00 	lds	r18, 0x0000	; 0x0000 <ctx>
0000: 00 00       	movw	r30, r24
0000: 00 00       	st	Z, r18
0000: 00 00       	ldi	r24, 0xBC	; 188
0000: 00 00       	ldi	r25, 0x0000	; 0
0000: 00 00       	ldi	r18, 0x0000	; 133
0000: 00 00       	movw	r30, r24
0000: 00 00       	st	Z, r18
0000: 00 00       	rjmp	.+362    	; 0x0000 <interrupt_twi+0x0000>
0000: 00 00       	ldi	r24, 0xFF	; 255
0000: 00 00       	ldi	r25, 0xFF	; 255
0000: 00 00 00 00 	sts	0x0000C, r25	; 0x0000 <ctx+0x0000>
0000: 00 00 00 00 	sts	0x0000B, r24	; 0x0000 <ctx+0x0000>
0000: 00 00       	rjmp	.+348    	; 0x0000 <interrupt_twi+0x0000>
0000: 00 00 00 00 	lds	r18, 0x0000	; 0x0000 <ctx+0x0000>
0000: 00 00 00 00 	lds	r19, 0x0000A	; 0x0000 <ctx+0x0000>
0000: 00 00 00 00 	lds	r24, 0x0000	; 0x0000 <ctx+0x0000>
0000: 00 00 00 00 	lds	r25, 0x0000	; 0x0000 <ctx+0x0000>
0000: 00 00       	cp	r18, r24
0000: 00 00       	cpc	r19, r25
0000: 00 00       	brcc	.+58     	; 0x0000 <interrupt_twi+0x0000>
0000: 00 00 00 00 	lds	r18, 0x0000	; 0x0000 <ctx+0x0000>
0000: 00 00 00 00 	lds	r19, 0x0000	; 0x0000 <ctx+0x0000>
0000: 00 00 00 00 	lds	r24, 0x0000	; 0x0000 <ctx+0x0000>
0000: 00 00 00 00 	lds	r25, 0x0000A	; 0x0000 <ctx+0x0000>
0000: 00 00       	movw	r20, r24
0000: 00 00       	subi	r20, 0xFF	; 255
0000: 00 00       	sbci	r21, 0xFF	; 255
0000: 00 00 00 00 	sts	0x0000A, r21	; 0x0000 <ctx+0x0000>
0000: 00 00 00 00 	sts	0x0000, r20	; 0x0000 <ctx+0x0000>
0000: 00 00       	add	r18, r24
0000: 00 00       	adc	r19, r25
0000: 00 00       	ldi	r24, 0xBB	; 187
0000: 00 00       	ldi	r25, 0x0000	; 0
0000: 00 00       	movw	r30, r18
0000: 00 00       	ld	r18, Z
0000: 00 00       	movw	r30, r24
0000: 00 00       	st	Z, r18
0000: 00 00       	ldi	r24, 0xBC	; 188
0000: 00 00       	ldi	r25, 0x0000	; 0
0000: 00 00       	ldi	r18, 0x0000	; 133
0000: 00 00       	movw	r30, r24
0000: 00 00       	st	Z, r18
0000: 00 00       	rjmp	.+268    	; 0x0000 <interrupt_twi+0x0000>
0000: 00 00       	ldi	r24, 0xBC	; 188
0000: 00 00       	ldi	r25, 0x0000	; 0
0000: 00 00       	ldi	r18, 0x0000	; 144
0000: 00 00       	movw	r30, r24
0000: 00 00       	st	Z, r18
0000: 00 00 00 00 	sts	0x0000C, r1	; 0x0000 <ctx+0x0000>
0000: 00 00 00 00 	sts	0x0000B, r1	; 0x0000 <ctx+0x0000>
0000: 00 00       	rjmp	.+248    	; 0x0000 <interrupt_twi+0x0000>
0000: 00 00       	ldi	r24, 0xBC	; 188
0000: 00 00       	ldi	r25, 0x0000	; 0
0000: 00 00       	ldi	r18, 0x0000	; 144
0000: 00 00       	movw	r30, r24
0000: 00 00       	st	Z, r18
0000: 00 00       	ldi	r24, 0xFF	; 255
0000: 00 00       	ldi	r25, 0xFF	; 255
0000: 00 00 00 00 	sts	0x0000C, r25	; 0x0000 <ctx+0x0000>
0000: 00 00 00 00 	sts	0x0000B, r24	; 0x0000 <ctx+0x0000>
0000: 00 00       	rjmp	.+224    	; 0x0000 <interrupt_twi+0x0000>
0000: 00 00 00 00 	lds	r24, 0x0000	; 0x0000 <ctx+0x0000>
0000: 00 00 00 00 	lds	r25, 0x0000A	; 0x0000 <ctx+0x0000>
0000: 00 00       	movw	r18, r24
0000: 00 00       	subi	r18, 0xFF	; 255
0000: 00 00       	sbci	r19, 0xFF	; 255
0000: 00 00 00 00 	lds	r24, 0x0000	; 0x0000 <ctx+0x0000>
0000: 00 00 00 00 	lds	r25, 0x0000	; 0x0000 <ctx+0x0000>
0000: 00 00       	cp	r18, r24
0000: 00 00       	cpc	r19, r25
0000: 00 00       	brcc	.+4      	; 0x0000 <interrupt_twi+0x0000>
0000: 00 00       	ldi	r18, 0xC5	; 197
0000: 00 00       	rjmp	.+2      	; 0x0000 <interrupt_twi+0x0000>
0000: 00 00       	ldi	r18, 0x0000	; 133
0000: 00 00       	ldi	r24, 0xBC	; 188
0000: 00 00       	ldi	r25, 0x0000	; 0
0000: 00 00       	movw	r30, r24
0000: 00 00       	st	Z, r18
0000: 00 00       	rjmp	.+180    	; 0x0000 <interrupt_twi+0x0000>
0000: 00 00       	ldi	r24, 0xBC	; 188
0000: 00 00       	ldi	r25, 0x0000	; 0
0000: 00 00       	ldi	r18, 0x0000	; 144
0000: 00 00       	movw	r30, r24
0000: 00 00       	st	Z, r18
0000: 00 00       	ldi	r24, 0xFF	; 255
0000: 00 00       	ldi	r25, 0xFF	; 255
0000: 00 00 00 00 	sts	0x0000C, r25	; 0x0000 <ctx+0x0000>
0000: 00 00 00 00 	sts	0x0000B, r24	; 0x0000 <ctx+0x0000>
0000: 00 00       	rjmp	.+156    	; 0x0000 <interrupt_twi+0x0000>
0000: 00 00       	ldi	r18, 0xBB	; 187
0000: 00 00       	ldi	r19, 0x0000	; 0
0000: 00 00 00 00 	lds	r20, 0x0000	; 0x0000 <ctx+0x0000>
0000: 00 00 00 00 	lds	r21, 0x0000	; 0x0000 <ctx+0x0000>
0000: 00 00 00 00 	lds	r24, 0x0000	; 0x0000 <ctx+0x0000>
0000: 00 00 00 00 	lds	r25, 0x0000A	; 0x0000 <ctx+0x0000>
0000: 00 00       	movw	r22, r24
0000: 00 00       	subi	r22, 0xFF	; 255
0000: 00 00       	sbci	r23, 0xFF	; 255
0000: 00 00 00 00 	sts	0x0000A, r23	; 0x0000 <ctx+0x0000>
0000: 00 00 00 00 	sts	0x0000, r22	; 0x0000 <ctx+0x0000>
0000: 00 00       	add	r24, r20
0000: 00 00       	adc	r25, r21
0000: 00 00       	movw	r30, r18
0000: 00 00       	ld	r18, Z
0000: 00 00       	movw	r30, r24
0000: 00 00       	st	Z, r18
0000: 00 00 00 00 	lds	r24, 0x0000	; 0x0000 <ctx+0x0000>
0000: 00 00 00 00 	lds	r25, 0x0000A	; 0x0000 <ctx+0x0000>
0000: 00 00       	movw	r18, r24
0000: 00 00       	subi	r18, 0xFF	; 255
0000: 00 00       	sbci	r19, 0xFF	; 255
0000: 00 00 00 00 	lds	r24, 0x0000	; 0x0000 <ctx+0x0000>
0000: 00 00 00 00 	lds	r25, 0x0000	; 0x0000 <ctx+0x0000>
0000: 00 00       	cp	r18, r24
0000: 00 00       	cpc	r19, r25
0000: 00 00       	brcc	.+4      	; 0x0000 <interrupt_twi+0x0000>
0000: 00 00       	ldi	r18, 0xC5	; 197
0000: 00 00       	rjmp	.+2      	; 0x0000 <interrupt_twi+0x0000>
0000: 00 00       	ldi	r18, 0x0000	; 133
0000: 00 00       	ldi	r24, 0xBC	; 188
0000: 00 00       	ldi	r25, 0x0000	; 0
0000: 00 00       	movw	r30, r24
0000: 00 00       	st	Z, r18
0000: 00 00       	rjmp	.+66     	; 0x0000 <interrupt_twi+0x0000>
0000: 00 00       	ldi	r18, 0xBB	; 187
0000: 00 00       	ldi	r19, 0x0000	; 0
0000: 00 00 00 00 	lds	r20, 0x0000	; 0x0000 <ctx+0x0000>
0000: 00 00 00 00 	lds	r21, 0x0000	; 0x0000 <ctx+0x0000>
0000: 00 00 00 00 	lds	r24, 0x0000	; 0x0000 <ctx+0x0000>
0000: 00 00 00 00 	lds	r25, 0x0000A	; 0x0000 <ctx+0x0000>
0000: 00 00       	movw	r22, r24
0000: 00 00       	subi	r22, 0xFF	; 255
0000: 00 00       	sbci	r23, 0xFF	; 255
0000: 00 00 00 00 	sts	0x0000A, r23	; 0x0000 <ctx+0x0000>
0000: 00 00 00 00 	sts	0x0000, r22	; 0x0000 <ctx+0x0000>
0000: 00 00       	add	r24, r20
0000: 00 00       	adc	r25, r21
0000: 00 00       	movw	r30, r18
0000: 00 00       	ld	r18, Z
0000: 00 00       	movw	r30, r24
0000: 00 00       	st	Z, r18
0000: 00 00       	ldi	r24, 0xBC	; 188
0000: 00 00       	ldi	r25, 0x0000	; 0
0000: 00 00       	ldi	r18, 0x0000	; 144
0000: 00 00       	movw	r30, r24
0000: 00 00       	st	Z, r18
0000: 00 00 00 00 	sts	0x0000C, r1	; 0x0000 <ctx+0x0000>
0000: 00 00 00 00 	sts	0x0000B, r1	; 0x0000 <ctx+0x0000>
0000: 00 00       	nop
0000: 00 00       	nop
0000: 00 00       	pop	r29
0000: 00 00       	pop	r28
0000: 00 00       	ret

00000952 <interrupt_timer0_ovf>:
0000: 00 00       	push	r28
0000: 00 00       	push	r29
0000: 00 00       	in	r28, 0x0000	; 61
0000: 00 00       	in	r29, 0x0000	; 62
0000: 00 00 00 00 	lds	r24, 0x0000	; 0x0000 <__data_end>
0000: 00 00 00 00 	lds	r25, 0x0000	; 0x0000 <__data_end+0x0000>
0000: 00 00 00 00 	lds	r26, 0x0000	; 0x0000 <__data_end+0x0000>
0000: 00 00 00 00 	lds	r27, 0x0000	; 0x0000 <__data_end+0x0000>
0000: 00 00       	adiw	r24, 0x0000	; 1
0000: 00 00       	adc	r26, r1
0000: 00 00       	adc	r27, r1
0000: 00 00 00 00 	sts	0x0000, r24	; 0x0000 <__data_end>
0000: 00 00 00 00 	sts	0x0000, r25	; 0x0000 <__data_end+0x0000>
0000: 00 00 00 00 	sts	0x0000, r26	; 0x0000 <__data_end+0x0000>
0000: 00 00 00 00 	sts	0x0000, r27	; 0x0000 <__data_end+0x0000>
0000: 00 00       	nop
0000: 00 00       	pop	r29
0000: 00 00       	pop	r28
0000: 00 00       	ret

00000988 <interrupt_timer1_ovf>:
0000: 00 00       	push	r28
0000: 00 00       	push	r29
0000: 00 00       	in	r28, 0x0000	; 61
0000: 00 00       	in	r29, 0x0000	; 62
0000: 00 00 00 00 	lds	r24, 0x0000	; 0x0000 <__data_end+0x0000>
0000: 00 00 00 00 	lds	r25, 0x0000	; 0x0000 <__data_end+0x0000>
0000: 00 00 00 00 	lds	r26, 0x0000	; 0x0000 <__data_end+0x0000>
0000: 00 00 00 00 	lds	r27, 0x0000	; 0x0000 <__data_end+0x0000>
0000: 00 00       	adiw	r24, 0x0000	; 1
0000: 00 00       	adc	r26, r1
0000: 00 00       	adc	r27, r1
0000: 00 00 00 00 	sts	0x0000, r24	; 0x0000 <__data_end+0x0000>
0000: 00 00 00 00 	sts	0x0000, r25	; 0x0000 <__data_end+0x0000>
0000: 00 00 00 00 	sts	0x0000, r26	; 0x0000 <__data_end+0x0000>
0000: 00 00 00 00 	sts	0x0000, r27	; 0x0000 <__data_end+0x0000>
0000: 00 00       	nop
0000: 00 00       	pop	r29
0000: 00 00       	pop	r28
0000: 00 00       	ret

000009be <interrupt_timer2_ovf>:
0000: 00 00       	push	r28
0000: 00 00       	push	r29
0000: 00 00       	in	r28, 0x0000	; 61
0000: 00 00       	in	r29, 0x0000	; 62
0000: 00 00 00 00 	lds	r24, 0x0000	; 0x0000 <__data_end+0x0000>
0000: 00 00 00 00 	lds	r25, 0x0000	; 0x0000 <__data_end+0x0000>
0000: 00 00 00 00 	lds	r26, 0x0000A	; 0x0000 <__data_end+0x0000>
0000: 00 00 00 00 	lds	r27, 0x0000B	; 0x0000 <__data_end+0x0000>
0000: 00 00       	adiw	r24, 0x0000	; 1
0000: 00 00       	adc	r26, r1
0000: 00 00       	adc	r27, r1
0000: 00 00 00 00 	sts	0x0000, r24	; 0x0000 <__data_end+0x0000>
0000: 00 00 00 00 	sts	0x0000, r25	; 0x0000 <__data_end+0x0000>
0000: 00 00 00 00 	sts	0x0000A, r26	; 0x0000 <__data_end+0x0000>
0000: 00 00 00 00 	sts	0x0000B, r27	; 0x0000 <__data_end+0x0000>
0000: 00 00       	nop
0000: 00 00       	pop	r29
0000: 00 00       	pop	r28
0000: 00 00       	ret

000009f4 <set_interrupt>:
0000: 00 00       	push	r28
0000: 00 00       	push	r29
0000: 00 00       	rcall	.+0      	; 0x0000 <set_interrupt+0x0000>
0000: 00 00       	in	r28, 0x0000	; 61
0000: 00 00       	in	r29, 0x0000	; 62
0000: 00 00       	std	Y+2, r25	; 0x0000
0000: 00 00       	std	Y+1, r24	; 0x0000
0000: 00 00       	ldd	r24, Y+1	; 0x0000
0000: 00 00       	ldd	r25, Y+2	; 0x0000
0000: 00 00       	or	r24, r25
0000: 00 00       	breq	.+14     	; 0x0000 <set_interrupt+0x0000>
0000: 00 00       	ldi	r24, 0xC1	; 193
0000: 00 00       	ldi	r25, 0x0000	; 0
0000: 00 00       	movw	r30, r24
0000: 00 00       	ld	r24, Z
0000: 00 00       	mov	r18, r24
0000: 00 00       	ori	r18, 0x0000	; 32
0000: 00 00       	rjmp	.+12     	; 0x0000 <set_interrupt+0x0000>
0000: 00 00       	ldi	r24, 0xC1	; 193
0000: 00 00       	ldi	r25, 0x0000	; 0
0000: 00 00       	movw	r30, r24
0000: 00 00       	ld	r24, Z
0000: 00 00       	mov	r18, r24
0000: 00 00       	andi	r18, 0xDF	; 223
0000: 00 00       	ldi	r24, 0xC1	; 193
0000: 00 00       	ldi	r25, 0x0000	; 0
0000: 00 00       	movw	r30, r24
0000: 00 00       	st	Z, r18
0000: 00 00       	nop
0000: 00 00       	pop	r0
0000: 00 00       	pop	r0
0000: 00 00       	pop	r29
0000: 00 00       	pop	r28
0000: 00 00       	ret

00000a38 <interrupt_usart_udre>:
0000: 00 00       	push	r28
0000: 00 00       	push	r29
0000: 00 00       	in	r28, 0x0000	; 61
0000: 00 00       	in	r29, 0x0000	; 62
0000: 00 00 00 00 	lds	r18, 0x0000	; 0x0000 <ctx+0x0000>
0000: 00 00 00 00 	lds	r19, 0x0000	; 0x0000 <ctx+0x0000>
0000: 00 00 00 00 	lds	r24, 0x0000E	; 0x0000 <ctx+0x0000>
0000: 00 00 00 00 	lds	r25, 0x0000F	; 0x0000 <ctx+0x0000>
0000: 00 00       	cp	r18, r24
0000: 00 00       	cpc	r19, r25
0000: 00 00       	brne	.+18     	; 0x0000 <interrupt_usart_udre+0x0000>
0000: 00 00 00 00 	sts	0x0000, r1	; 0x0000 <ctx+0x0000>
0000: 00 00 00 00 	sts	0x0000, r1	; 0x0000 <ctx+0x0000>
0000: 00 00       	ldi	r24, 0x0000	; 0
0000: 00 00       	ldi	r25, 0x0000	; 0
0000: 00 00 00 00 	call	0x0000	; 0x0000 <set_interrupt>
0000: 00 00       	rjmp	.+46     	; 0x0000 <interrupt_usart_udre+0x0000>
0000: 00 00 00 00 	lds	r18, 0x0000C	; 0x0000 <ctx>
0000: 00 00 00 00 	lds	r19, 0x0000D	; 0x0000 <ctx+0x0000>
0000: 00 00 00 00 	lds	r24, 0x0000	; 0x0000 <ctx+0x0000>
0000: 00 00 00 00 	lds	r25, 0x0000	; 0x0000 <ctx+0x0000>
0000: 00 00       	movw	r20, r24
0000: 00 00       	subi	r20, 0xFF	; 255
0000: 00 00       	sbci	r21, 0xFF	; 255
0000: 00 00 00 00 	sts	0x0000, r21	; 0x0000 <ctx+0x0000>
0000: 00 00 00 00 	sts	0x0000, r20	; 0x0000 <ctx+0x0000>
0000: 00 00       	add	r18, r24
0000: 00 00       	adc	r19, r25
0000: 00 00       	ldi	r24, 0xC6	; 198
0000: 00 00       	ldi	r25, 0x0000	; 0
0000: 00 00       	movw	r30, r18
0000: 00 00       	ld	r18, Z
0000: 00 00       	movw	r30, r24
0000: 00 00       	st	Z, r18
0000: 00 00       	pop	r29
0000: 00 00       	pop	r28
0000: 00 00       	ret

00000a9c <__tablejump2__>:
0000: 00 00       	add	r30, r30
0000: 00 00       	adc	r31, r31
0000: 00 00       	lpm
0000: 00 00       	push	r0
0000: 00 00       	adiw	r30, 0x0000	; 1
0000: 00 00       	lpm
0000: 00 00       	push	r0
0000: 00 00       	ret
0000: 00 00       	fmuls	r22, r20
0000: 00 00       	cpc	r10, r5
0000: 00 00       	cpc	r10, r5
0000: 00 00       	cpc	r10, r5
0000: 00 00       	cpc	r10, r5
0000: 00 00       	cpc	r10, r5
0000: 00 00       	cpc	r10, r5
0000: 00 00       	cpc	r10, r5
0000: 00 00       	fmuls	r22, r20
0000: 00 00       	cpc	r10, r5
0000: 00 00       	cpc	r10, r5
0000: 00 00       	cpc	r10, r5
0000: 00 00       	cpc	r10, r5
0000: 00 00       	cpc	r10, r5
0000: 00 00       	cpc	r10, r5
0000: 00 00       	cpc	r10, r5
0000: 00 00       	fmuls	r23, r23
0000: 00 00       	cpc	r10, r5
0000: 00 00       	cpc	r10, r5
0000: 00 00       	cpc	r10, r5
0000: 00 00       	cpc	r10, r5
0000: 00 00       	cpc	r10, r5
0000: 00 00       	cpc	r10, r5
0000: 00 00       	cpc	r10, r5
0000: 00 00       	cpc	r2, r9
0000: 00 00       	cpc	r10, r5
0000: 00 00       	cpc	r10, r5
0000: 00 00       	cpc	r10, r5
0000: 00 00       	cpc	r10, r5
0000: 00 00       	cpc	r10, r5
0000: 00 00       	cpc	r10, r5
0000: 00 00       	cpc	r10, r5
0000: 00 00       	fmuls	r23, r23
0000: 00 00       	cpc	r10, r5
0000: 00 00       	cpc	r10, r5
0000: 00 00       	cpc	r10, r5
0000: 00 00       	cpc	r10, r5
0000: 00 00       	cpc	r10, r5
0000: 00 00       	cpc	r10, r5
0000: 00 00       	cpc	r10, r5
0000: 00 00       	cpc	r2, r9
0000: 00 00       	cpc	r10, r5
0000: 00 00       	cpc	r10, r5
0000: 00 00       	cpc	r10, r5
0000: 00 00       	cpc	r10, r5
0000: 00 00       	cpc	r10, r5
0000: 00 00       	cpc	r10, r5
0000: 00 00       	cpc	r10, r5
0000: 00 00       	fmuls	r23, r16
0000: 00 00       	cpc	r10, r5
0000: 00 00       	cpc	r10, r5
0000: 00 00       	cpc	r10, r5
0000: 00 00       	cpc	r10, r5
0000: 00 00       	cpc	r10, r5
0000: 00 00       	cpc	r10, r5
0000: 00 00       	cpc	r10, r5
0000: 00 00       	cpc	r3, r5
0000: 00 00       	cpc	r10, r5
0000: 00 00       	cpc	r10, r5
0000: 00 00       	cpc	r10, r5
0000: 00 00       	cpc	r10, r5
0000: 00 00       	cpc	r10, r5
0000: 00 00       	cpc	r10, r5
0000: 00 00       	cpc	r10, r5
0000: 00 00       	cpc	r4, r11
0000: 00 00       	cpc	r10, r5
0000: 00 00       	cpc	r10, r5
0000: 00 00       	cpc	r10, r5
0000: 00 00       	cpc	r10, r5
0000: 00 00       	cpc	r10, r5
0000: 00 00       	cpc	r10, r5
0000: 00 00       	cpc	r10, r5
0000: 00 00       	cpc	r5, r7
0000: 00 00       	cpc	r10, r5
0000: 00 00       	cpc	r10, r5
0000: 00 00       	cpc	r10, r5
0000: 00 00       	cpc	r10, r5
0000: 00 00       	cpc	r10, r5
0000: 00 00       	cpc	r10, r5
0000: 00 00       	cpc	r10, r5
0000: 00 00       	cpc	r8, r4
